; Function Attrs: mustprogress uwtable
define dso_local void @_ZN3igl6opengl10ViewerCore4initEv(ptr noundef nonnull align 16 dereferenceable(544) %0) local_unnamed_addr #3 align 2 {
  %2 = load ptr, ptr @glad_glDeleteTextures, align 8, !tbaa !58
  %3 = getelementptr inbounds nuw i8, ptr %0, i64 56
  tail call void %2(i32 noundef 1, ptr noundef nonnull %3)
  %4 = load ptr, ptr @glad_glDeleteFramebuffers, align 8, !tbaa !58
  %5 = getelementptr inbounds nuw i8, ptr %0, i64 60
  tail call void %4(i32 noundef 1, ptr noundef nonnull %5)
  %6 = load ptr, ptr @glad_glDeleteRenderbuffers, align 8, !tbaa !58
  %7 = getelementptr inbounds nuw i8, ptr %0, i64 64
  tail call void %6(i32 noundef 1, ptr noundef nonnull %7)
  tail call void @_ZN3igl6opengl10ViewerCore23generate_shadow_buffersEv(ptr noundef nonnull align 16 dereferenceable(544) %0)
  ret void
}